; Function Attrs: nounwind uwtable
define internal fastcc noalias nonnull ptr @_init_l_Lean_PPContext_runCoreM___rarg___closed__19() unnamed_addr #0 {
  %1 = load ptr, ptr @l_Lean_PPContext_runCoreM___rarg___closed__16, align 8, !tbaa !9
  %2 = load ptr, ptr @l_Lean_PPContext_runCoreM___rarg___closed__13, align 8, !tbaa !9
  tail call void @lean_inc_heartbeat() #6
  %3 = tail call noalias ptr @mi_malloc_small(i64 noundef 40) #6
  %4 = icmp eq ptr %3, null
  br i1 %4, label %5, label %lean_alloc_ctor.exit

5:                                                ; preds = %0
  tail call void @lean_internal_panic_out_of_memory() #7
  unreachable

lean_alloc_ctor.exit:                             ; preds = %0
  %6 = getelementptr inbounds nuw i8, ptr %3, i64 4
  %7 = getelementptr inbounds nuw i8, ptr %3, i64 32
  store i64 1, ptr %7, align 8, !tbaa !13
  store i32 1, ptr %3, align 4, !tbaa !4
  store i32 196648, ptr %6, align 4
  %8 = getelementptr inbounds nuw i8, ptr %3, i64 8
  store ptr %1, ptr %8, align 8, !tbaa !9
  %9 = getelementptr inbounds nuw i8, ptr %3, i64 16
  store ptr %1, ptr %9, align 8, !tbaa !9
  %10 = getelementptr inbounds nuw i8, ptr %3, i64 24
  store ptr %2, ptr %10, align 8, !tbaa !9
  ret ptr %3
}